
Memory Configuration

Name             Origin             Length             Attributes
FLASH            0x0000000008000000 0x0000000000020000 xr
RAM              0x0000000020000000 0x0000000000002000 xrw
MEMORY_B1        0x0000000060000000 0x0000000000000000 xr
*default*        0x0000000000000000 0xffffffffffffffff

Linker script and memory map

LOAD ./Debug/sys_startup_stm32f10x_md_vl.S.o
LOAD ./Debug/src_main.c.o
LOAD ./Debug/src_system_stm32f10x.c.o
START GROUP
LOAD /usr/lib/gcc/arm-none-eabi/4.9.3/../../../arm-none-eabi/lib/armv7-m/libg.a
LOAD /usr/lib/gcc/arm-none-eabi/4.9.3/../../../arm-none-eabi/lib/armv7-m/libstdc++.a
LOAD /usr/lib/gcc/arm-none-eabi/4.9.3/../../../arm-none-eabi/lib/armv7-m/libsupc++.a
LOAD /usr/lib/gcc/arm-none-eabi/4.9.3/armv7-m/libgcc.a
LOAD /usr/lib/gcc/arm-none-eabi/4.9.3/../../../arm-none-eabi/lib/armv7-m/libm.a
END GROUP
                0x0000000020002000                _estack = 0x20002000
                0x0000000000000000                _Min_Heap_Size = 0x0
                0x0000000000000080                _Min_Stack_Size = 0x80

.text           0x0000000008000000      0x488
                0x0000000008000000                . = ALIGN (0x4)
 *(.isr_vector)
 .isr_vector    0x0000000008000000      0x1d0 ./Debug/sys_startup_stm32f10x_md_vl.S.o
                0x0000000008000000                g_pfnVectors
 *(.text)
 .text          0x00000000080001d0       0x14 ./Debug/sys_startup_stm32f10x_md_vl.S.o
 .text          0x00000000080001e4        0x0 ./Debug/src_main.c.o
 .text          0x00000000080001e4        0x0 ./Debug/src_system_stm32f10x.c.o
 *(.text*)
 .text.Reset_Handler
                0x00000000080001e4       0x44 ./Debug/sys_startup_stm32f10x_md_vl.S.o
                0x00000000080001e4                Reset_Handler
 .text.Default_Handler
                0x0000000008000228        0x2 ./Debug/sys_startup_stm32f10x_md_vl.S.o
                0x0000000008000228                EXTI2_IRQHandler
                0x0000000008000228                DebugMon_Handler
                0x0000000008000228                TIM1_CC_IRQHandler
                0x0000000008000228                HardFault_Handler
                0x0000000008000228                SysTick_Handler
                0x0000000008000228                PVD_IRQHandler
                0x0000000008000228                PendSV_Handler
                0x0000000008000228                NMI_Handler
                0x0000000008000228                EXTI3_IRQHandler
                0x0000000008000228                EXTI0_IRQHandler
                0x0000000008000228                TIM1_UP_TIM16_IRQHandler
                0x0000000008000228                UsageFault_Handler
                0x0000000008000228                SPI1_IRQHandler
                0x0000000008000228                TAMPER_IRQHandler
                0x0000000008000228                TIM6_DAC_IRQHandler
                0x0000000008000228                DMA1_Channel4_IRQHandler
                0x0000000008000228                ADC1_IRQHandler
                0x0000000008000228                RTC_IRQHandler
                0x0000000008000228                DMA1_Channel7_IRQHandler
                0x0000000008000228                I2C1_EV_IRQHandler
                0x0000000008000228                DMA1_Channel6_IRQHandler
                0x0000000008000228                TIM3_IRQHandler
                0x0000000008000228                RCC_IRQHandler
                0x0000000008000228                DMA1_Channel1_IRQHandler
                0x0000000008000228                Default_Handler
                0x0000000008000228                CEC_IRQHandler
                0x0000000008000228                EXTI15_10_IRQHandler
                0x0000000008000228                TIM7_IRQHandler
                0x0000000008000228                EXTI9_5_IRQHandler
                0x0000000008000228                MemManage_Handler
                0x0000000008000228                SVC_Handler
                0x0000000008000228                DMA1_Channel5_IRQHandler
                0x0000000008000228                EXTI4_IRQHandler
                0x0000000008000228                TIM1_TRG_COM_TIM17_IRQHandler
                0x0000000008000228                DMA1_Channel3_IRQHandler
                0x0000000008000228                WWDG_IRQHandler
                0x0000000008000228                TIM2_IRQHandler
                0x0000000008000228                EXTI1_IRQHandler
                0x0000000008000228                RTCAlarm_IRQHandler
                0x0000000008000228                USART2_IRQHandler
                0x0000000008000228                DMA1_Channel2_IRQHandler
                0x0000000008000228                FLASH_IRQHandler
                0x0000000008000228                BusFault_Handler
                0x0000000008000228                USART1_IRQHandler
                0x0000000008000228                I2C1_ER_IRQHandler
                0x0000000008000228                TIM1_BRK_TIM15_IRQHandler
 *fill*         0x000000000800022a        0x2 
 .text.InitAll  0x000000000800022c       0x4c ./Debug/src_main.c.o
                0x000000000800022c                InitAll
 .text.main     0x0000000008000278       0x24 ./Debug/src_main.c.o
                0x0000000008000278                main
 .text.SystemInit
                0x000000000800029c       0x6c ./Debug/src_system_stm32f10x.c.o
                0x000000000800029c                SystemInit
 .text.SystemCoreClockUpdate
                0x0000000008000308       0xd4 ./Debug/src_system_stm32f10x.c.o
                0x0000000008000308                SystemCoreClockUpdate
 .text.SetSysClock
                0x00000000080003dc        0xc ./Debug/src_system_stm32f10x.c.o
 .text.SetSysClockToHSE
                0x00000000080003e8       0xa0 ./Debug/src_system_stm32f10x.c.o
 *(.rodata)
 *(.rodata*)
 *(.glue_7)
 .glue_7        0x0000000008000488        0x0 linker stubs
 *(.glue_7t)
 .glue_7t       0x0000000008000488        0x0 linker stubs
 *(.eh_frame)
 *(.init)
 *(.fini)
                0x0000000008000488                . = ALIGN (0x4)
                0x0000000008000488                _etext = .

.vfp11_veneer   0x0000000008000488        0x0
 .vfp11_veneer  0x0000000008000488        0x0 linker stubs

.v4_bx          0x0000000008000488        0x0
 .v4_bx         0x0000000008000488        0x0 linker stubs

.iplt           0x0000000008000488        0x0
 .iplt          0x0000000008000488        0x0 ./Debug/sys_startup_stm32f10x_md_vl.S.o

.rel.dyn        0x0000000008000488        0x0
 .rel.iplt      0x0000000008000488        0x0 ./Debug/sys_startup_stm32f10x_md_vl.S.o

.ARM.extab
 *(.ARM.extab* .gnu.linkonce.armextab.*)

.ARM            0x0000000008000488        0x0
                0x0000000008000488                __exidx_start = .
 *(.ARM.exidx*)
                0x0000000008000488                __exidx_end = .

.preinit_array  0x0000000008000488        0x0
                [!provide]                        PROVIDE (__preinit_array_start, .)
 *(.preinit_array*)
                [!provide]                        PROVIDE (__preinit_array_end, .)

.init_array     0x0000000008000488        0x0
                [!provide]                        PROVIDE (__init_array_start, .)
 *(SORT(.init_array.*))
 *(.init_array*)
                [!provide]                        PROVIDE (__init_array_end, .)

.fini_array     0x0000000008000488        0x0
                [!provide]                        PROVIDE (__fini_array_start, .)
 *(.fini_array*)
 *(SORT(.fini_array.*))
                [!provide]                        PROVIDE (__fini_array_end, .)
                0x0000000008000488                _sidata = .

.data           0x0000000020000000       0x14 load address 0x0000000008000488
                0x0000000020000000                . = ALIGN (0x4)
                0x0000000020000000                _sdata = .
 *(.data)
 .data          0x0000000020000000        0x0 ./Debug/sys_startup_stm32f10x_md_vl.S.o
 .data          0x0000000020000000        0x0 ./Debug/src_main.c.o
 .data          0x0000000020000000        0x0 ./Debug/src_system_stm32f10x.c.o
 *(.data*)
 .data.SystemCoreClock
                0x0000000020000000        0x4 ./Debug/src_system_stm32f10x.c.o
                0x0000000020000000                SystemCoreClock
 .data.AHBPrescTable
                0x0000000020000004       0x10 ./Debug/src_system_stm32f10x.c.o
                0x0000000020000004                AHBPrescTable
                0x0000000020000014                . = ALIGN (0x4)
                0x0000000020000014                _edata = .

.igot.plt       0x0000000020000014        0x0 load address 0x000000000800049c
 .igot.plt      0x0000000020000014        0x0 ./Debug/sys_startup_stm32f10x_md_vl.S.o
                0x0000000020000014                . = ALIGN (0x4)

.bss            0x0000000020000014        0x0 load address 0x000000000800049c
                0x0000000020000014                _sbss = .
                0x0000000020000014                __bss_start__ = _sbss
 *(.bss)
 .bss           0x0000000020000014        0x0 ./Debug/sys_startup_stm32f10x_md_vl.S.o
 .bss           0x0000000020000014        0x0 ./Debug/src_main.c.o
 .bss           0x0000000020000014        0x0 ./Debug/src_system_stm32f10x.c.o
 *(.bss*)
 *(COMMON)
                0x0000000020000014                . = ALIGN (0x4)
                0x0000000020000014                _ebss = .
                0x0000000020000014                __bss_end__ = _ebss
                [!provide]                        PROVIDE (end, _ebss)
                [!provide]                        PROVIDE (_end, _ebss)

._user_heap_stack
                0x0000000020000014       0x80 load address 0x000000000800049c
                0x0000000020000014                . = ALIGN (0x4)
                0x0000000020000014                . = (. + _Min_Heap_Size)
                0x0000000020000094                . = (. + _Min_Stack_Size)
 *fill*         0x0000000020000014       0x80 
                0x0000000020000094                . = ALIGN (0x4)

.memory_b1_text
 *(.mb1text)
 *(.mb1text*)
 *(.mb1rodata)
 *(.mb1rodata*)

/DISCARD/
 libc.a(*)
 libm.a(*)
 libgcc.a(*)

.ARM.attributes
                0x0000000000000000       0x2f
 *(.ARM.attributes)
 .ARM.attributes
                0x0000000000000000       0x21 ./Debug/sys_startup_stm32f10x_md_vl.S.o
 .ARM.attributes
                0x0000000000000021       0x33 ./Debug/src_main.c.o
 .ARM.attributes
                0x0000000000000054       0x33 ./Debug/src_system_stm32f10x.c.o
Address of section .text set to 0x8000000
OUTPUT(stm32.elf elf32-littlearm)

.debug_line     0x0000000000000000      0x2cc
 .debug_line    0x0000000000000000       0x98 ./Debug/sys_startup_stm32f10x_md_vl.S.o
 .debug_line    0x0000000000000098       0xe8 ./Debug/src_main.c.o
 .debug_line    0x0000000000000180      0x14c ./Debug/src_system_stm32f10x.c.o

.debug_info     0x0000000000000000      0x6b1
 .debug_info    0x0000000000000000       0x7e ./Debug/sys_startup_stm32f10x_md_vl.S.o
 .debug_info    0x000000000000007e      0x223 ./Debug/src_main.c.o
 .debug_info    0x00000000000002a1      0x410 ./Debug/src_system_stm32f10x.c.o

.debug_abbrev   0x0000000000000000      0x259
 .debug_abbrev  0x0000000000000000       0x12 ./Debug/sys_startup_stm32f10x_md_vl.S.o
 .debug_abbrev  0x0000000000000012       0xcc ./Debug/src_main.c.o
 .debug_abbrev  0x00000000000000de      0x17b ./Debug/src_system_stm32f10x.c.o

.debug_aranges  0x0000000000000000       0x88
 .debug_aranges
                0x0000000000000000       0x28 ./Debug/sys_startup_stm32f10x_md_vl.S.o
 .debug_aranges
                0x0000000000000028       0x28 ./Debug/src_main.c.o
 .debug_aranges
                0x0000000000000050       0x38 ./Debug/src_system_stm32f10x.c.o

.debug_ranges   0x0000000000000000       0x60
 .debug_ranges  0x0000000000000000       0x20 ./Debug/sys_startup_stm32f10x_md_vl.S.o
 .debug_ranges  0x0000000000000020       0x18 ./Debug/src_main.c.o
 .debug_ranges  0x0000000000000038       0x28 ./Debug/src_system_stm32f10x.c.o

.debug_loc      0x0000000000000000      0x18c
 .debug_loc     0x0000000000000000       0x7c ./Debug/src_main.c.o
 .debug_loc     0x000000000000007c      0x110 ./Debug/src_system_stm32f10x.c.o

.debug_str      0x0000000000000000      0x338
 .debug_str     0x0000000000000000      0x208 ./Debug/src_main.c.o
                                        0x23c (size before relaxing)
 .debug_str     0x0000000000000208      0x130 ./Debug/src_system_stm32f10x.c.o
                                        0x31e (size before relaxing)

.comment        0x0000000000000000       0x38
 .comment       0x0000000000000000       0x38 ./Debug/src_main.c.o
                                         0x39 (size before relaxing)
 .comment       0x0000000000000038       0x39 ./Debug/src_system_stm32f10x.c.o

.debug_frame    0x0000000000000000       0xe8
 .debug_frame   0x0000000000000000       0x50 ./Debug/src_main.c.o
 .debug_frame   0x0000000000000050       0x98 ./Debug/src_system_stm32f10x.c.o
